; Function Attrs: mustprogress nounwind uwtable
define void @_ZN7glslang13TIntermediate10removeTreeEv(ptr nocapture noundef nonnull readonly align 8 dereferenceable(2024) %0) local_unnamed_addr #0 align 2 {
  %2 = getelementptr inbounds i8, ptr %0, i64 128
  %3 = load ptr, ptr %2, align 8
  %.not = icmp eq ptr %3, null
  br i1 %.not, label %5, label %4

4:                                                ; preds = %1
  tail call void @_ZN7glslang18RemoveAllTreeNodesEP11TIntermNode(ptr noundef nonnull %3) #17
  br label %5

5:                                                ; preds = %4, %1
  ret void
}